; Function Attrs: nounwind uwtable
define internal noundef i32 @db_getmetatable(ptr noundef %0) #0 {
  tail call void @luaL_checkany(ptr noundef %0, i32 noundef 1) #8
  %2 = tail call i32 @lua_getmetatable(ptr noundef %0, i32 noundef 1) #8
  %.not = icmp eq i32 %2, 0
  br i1 %.not, label %3, label %4

3:                                                ; preds = %1
  tail call void @lua_pushnil(ptr noundef %0) #8
  br label %4

4:                                                ; preds = %3, %1
  ret i32 1
}